target datalayout = "e-m:e-p270:32:32-p271:32:32-p272:64:64-i64:64-i128:128-f80:128-n8:16:32:64-S128"
target triple = "x86_64-pc-linux-gnu"

%struct.persist_msg_t = type { ptr, ptr, i16 }
%struct.persist_rc_msg_t = type { ptr, i16, i32, i16 }

@plugin_type = dso_local constant [28 x i8] c"accounting_storage/slurmdbd\00", align 16
@.str.85 = private unnamed_addr constant [26 x i8] c"DBD_GET_STATS failure: %m\00", align 1
@.str.86 = private unnamed_addr constant [17 x i8] c"%s: %s: RC:%d %s\00", align 1
@__func__.acct_storage_p_get_stats = private unnamed_addr constant [25 x i8] c"acct_storage_p_get_stats\00", align 1
@.str.87 = private unnamed_addr constant [36 x i8] c"response type not DBD_GOT_STATS: %u\00", align 1

; Function Attrs: nounwind uwtable
define dso_local i32 @acct_storage_p_get_stats(ptr noundef %0, ptr noundef %1) #0 {
  %3 = alloca ptr, align 8
  %4 = alloca ptr, align 8
  %5 = alloca %struct.persist_msg_t, align 8
  %6 = alloca %struct.persist_msg_t, align 8
  %7 = alloca i32, align 4
  %8 = alloca ptr, align 8
  store ptr %0, ptr %3, align 8
  store ptr %1, ptr %4, align 8
  call void @llvm.lifetime.start.p0(i64 24, ptr %5) #9
  call void @llvm.memset.p0.i64(ptr align 8 %5, i8 0, i64 24, i1 false)
  call void @llvm.lifetime.start.p0(i64 24, ptr %6) #9
  call void @llvm.memset.p0.i64(ptr align 8 %6, i8 0, i64 24, i1 false)
  call void @llvm.lifetime.start.p0(i64 4, ptr %7) #9
  %9 = getelementptr inbounds nuw %struct.persist_msg_t, ptr %5, i32 0, i32 2
  store i16 1489, ptr %9, align 8
  %10 = load ptr, ptr %3, align 8
  %11 = getelementptr inbounds nuw %struct.persist_msg_t, ptr %5, i32 0, i32 0
  store ptr %10, ptr %11, align 8
  %12 = call i32 @dbd_conn_send_recv(i16 noundef zeroext 11008, ptr noundef %5, ptr noundef %6)
  store i32 %12, ptr %7, align 4
  %13 = load i32, ptr %7, align 4
  %14 = icmp ne i32 %13, 0
  br i1 %14, label %15, label %17

15:                                               ; preds = %2
  %16 = call i32 (ptr, ...) @slurm_error(ptr noundef @.str.85)
  br label %88

17:                                               ; preds = %2
  %18 = getelementptr inbounds nuw %struct.persist_msg_t, ptr %6, i32 0, i32 2
  %19 = load i16, ptr %18, align 8
  %20 = zext i16 %19 to i32
  %21 = icmp eq i32 %20, 1433
  br i1 %21, label %22, label %72

22:                                               ; preds = %17
  call void @llvm.lifetime.start.p0(i64 8, ptr %8) #9
  %23 = getelementptr inbounds nuw %struct.persist_msg_t, ptr %6, i32 0, i32 1
  %24 = load ptr, ptr %23, align 8
  store ptr %24, ptr %8, align 8
  %25 = load ptr, ptr %8, align 8
  %26 = getelementptr inbounds nuw %struct.persist_rc_msg_t, ptr %25, i32 0, i32 2
  %27 = load i32, ptr %26, align 4
  %28 = icmp eq i32 %27, 0
  br i1 %28, label %29, label %46

29:                                               ; preds = %22
  br label %30

30:                                               ; preds = %29
  br label %31

31:                                               ; preds = %30
  %32 = call i32 @slurm_get_log_level()
  %33 = icmp sge i32 %32, 3
  br i1 %33, label %34, label %41

34:                                               ; preds = %31
  %35 = load ptr, ptr %8, align 8
  %36 = getelementptr inbounds nuw %struct.persist_rc_msg_t, ptr %35, i32 0, i32 2
  %37 = load i32, ptr %36, align 4
  %38 = load ptr, ptr %8, align 8
  %39 = getelementptr inbounds nuw %struct.persist_rc_msg_t, ptr %38, i32 0, i32 0
  %40 = load ptr, ptr %39, align 8
  call void (i32, ptr, ...) @slurm_log_var(i32 noundef 3, ptr noundef @.str.86, ptr noundef @plugin_type, ptr noundef @__func__.acct_storage_p_get_stats, i32 noundef %37, ptr noundef %40)
  br label %41

41:                                               ; preds = %34, %31
  br label %42

42:                                               ; preds = %41
  br label %43

43:                                               ; preds = %42
  br label %44

44:                                               ; preds = %43
  br label %45

45:                                               ; preds = %44
  br label %67

46:                                               ; preds = %22
  %47 = load ptr, ptr %8, align 8
  %48 = getelementptr inbounds nuw %struct.persist_rc_msg_t, ptr %47, i32 0, i32 2
  %49 = load i32, ptr %48, align 4
  %50 = call ptr @__errno_location() #10
  store i32 %49, ptr %50, align 4
  br label %51

51:                                               ; preds = %46
  br label %52

52:                                               ; preds = %51
  %53 = call i32 @slurm_get_log_level()
  %54 = icmp sge i32 %53, 3
  br i1 %54, label %55, label %62

55:                                               ; preds = %52
  %56 = load ptr, ptr %8, align 8
  %57 = getelementptr inbounds nuw %struct.persist_rc_msg_t, ptr %56, i32 0, i32 2
  %58 = load i32, ptr %57, align 4
  %59 = load ptr, ptr %8, align 8
  %60 = getelementptr inbounds nuw %struct.persist_rc_msg_t, ptr %59, i32 0, i32 0
  %61 = load ptr, ptr %60, align 8
  call void (i32, ptr, ...) @slurm_log_var(i32 noundef 3, ptr noundef @.str.86, ptr noundef @plugin_type, ptr noundef @__func__.acct_storage_p_get_stats, i32 noundef %58, ptr noundef %61)
  br label %62

62:                                               ; preds = %55, %52
  br label %63

63:                                               ; preds = %62
  br label %64

64:                                               ; preds = %63
  br label %65

65:                                               ; preds = %64
  br label %66

66:                                               ; preds = %65
  br label %67

67:                                               ; preds = %66, %45
  %68 = load ptr, ptr %8, align 8
  %69 = getelementptr inbounds nuw %struct.persist_rc_msg_t, ptr %68, i32 0, i32 2
  %70 = load i32, ptr %69, align 4
  store i32 %70, ptr %7, align 4
  %71 = load ptr, ptr %8, align 8
  call void @slurm_persist_free_rc_msg(ptr noundef %71)
  call void @llvm.lifetime.end.p0(i64 8, ptr %8) #9
  br label %87

72:                                               ; preds = %17
  %73 = getelementptr inbounds nuw %struct.persist_msg_t, ptr %6, i32 0, i32 2
  %74 = load i16, ptr %73, align 8
  %75 = zext i16 %74 to i32
  %76 = icmp ne i32 %75, 1490
  br i1 %76, label %77, label %82

77:                                               ; preds = %72
  %78 = getelementptr inbounds nuw %struct.persist_msg_t, ptr %6, i32 0, i32 2
  %79 = load i16, ptr %78, align 8
  %80 = zext i16 %79 to i32
  %81 = call i32 (ptr, ...) @slurm_error(ptr noundef @.str.87, i32 noundef %80)
  store i32 -1, ptr %7, align 4
  br label %86

82:                                               ; preds = %72
  %83 = getelementptr inbounds nuw %struct.persist_msg_t, ptr %6, i32 0, i32 1
  %84 = load ptr, ptr %83, align 8
  %85 = load ptr, ptr %4, align 8
  store ptr %84, ptr %85, align 8
  br label %86

86:                                               ; preds = %82, %77
  br label %87

87:                                               ; preds = %86, %67
  br label %88

88:                                               ; preds = %87, %15
  %89 = load i32, ptr %7, align 4
  call void @llvm.lifetime.end.p0(i64 4, ptr %7) #9
  call void @llvm.lifetime.end.p0(i64 24, ptr %6) #9
  call void @llvm.lifetime.end.p0(i64 24, ptr %5) #9
  ret i32 %89
}