; Function Attrs: nounwind uwtable
define dso_local i32 @acct_storage_p_get_stats(ptr noundef %0, ptr noundef writeonly captures(none) %1) local_unnamed_addr #0 {
  %3 = alloca %struct.persist_msg_t, align 8
  %4 = alloca %struct.persist_msg_t, align 8
  call void @llvm.lifetime.start.p0(i64 24, ptr nonnull %3) #11
  %5 = getelementptr inbounds nuw i8, ptr %3, i64 8
  call void @llvm.memset.p0.i64(ptr noundef nonnull align 8 dereferenceable(24) %5, i8 0, i64 16, i1 false)
  call void @llvm.lifetime.start.p0(i64 24, ptr nonnull %4) #11
  call void @llvm.memset.p0.i64(ptr noundef nonnull align 8 dereferenceable(24) %4, i8 0, i64 24, i1 false)
  %6 = getelementptr inbounds nuw i8, ptr %3, i64 16
  store i16 1489, ptr %6, align 8
  store ptr %0, ptr %3, align 8
  %7 = call i32 @dbd_conn_send_recv(i16 noundef zeroext 11008, ptr noundef nonnull %3, ptr noundef nonnull %4) #11
  %.not = icmp eq i32 %7, 0
  br i1 %.not, label %10, label %8

8:                                                ; preds = %2
  %9 = call i32 (ptr, ...) @slurm_error(ptr noundef nonnull @.str.85) #11
  br label %36

10:                                               ; preds = %2
  %11 = getelementptr inbounds nuw i8, ptr %4, i64 16
  %12 = load i16, ptr %11, align 8
  switch i16 %12, label %30 [
    i16 1433, label %13
    i16 1490, label %33
  ]

13:                                               ; preds = %10
  %14 = getelementptr inbounds nuw i8, ptr %4, i64 8
  %15 = load ptr, ptr %14, align 8
  %16 = getelementptr inbounds nuw i8, ptr %15, i64 12
  %17 = load i32, ptr %16, align 4
  %18 = icmp eq i32 %17, 0
  br i1 %18, label %19, label %22

19:                                               ; preds = %13
  %20 = call i32 @slurm_get_log_level() #11
  %21 = icmp sgt i32 %20, 2
  br i1 %21, label %.sink.split, label %28

22:                                               ; preds = %13
  %23 = tail call ptr @__errno_location() #12
  store i32 %17, ptr %23, align 4
  %24 = call i32 @slurm_get_log_level() #11
  %25 = icmp sgt i32 %24, 2
  br i1 %25, label %.sink.split, label %28

.sink.split:                                      ; preds = %22, %19
  %26 = load i32, ptr %16, align 4
  %27 = load ptr, ptr %15, align 8
  call void (i32, ptr, ...) @slurm_log_var(i32 noundef 3, ptr noundef nonnull @.str.86, ptr noundef nonnull @plugin_type, ptr noundef nonnull @__func__.acct_storage_p_get_stats, i32 noundef %26, ptr noundef %27) #11
  br label %28

28:                                               ; preds = %.sink.split, %22, %19
  %29 = load i32, ptr %16, align 4
  call void @slurm_persist_free_rc_msg(ptr noundef nonnull %15) #11
  br label %36

30:                                               ; preds = %10
  %31 = zext i16 %12 to i32
  %32 = call i32 (ptr, ...) @slurm_error(ptr noundef nonnull @.str.87, i32 noundef %31) #11
  br label %36

33:                                               ; preds = %10
  %34 = getelementptr inbounds nuw i8, ptr %4, i64 8
  %35 = load ptr, ptr %34, align 8
  store ptr %35, ptr %1, align 8
  br label %36

36:                                               ; preds = %28, %33, %30, %8
  %.0 = phi i32 [ %7, %8 ], [ %29, %28 ], [ -1, %30 ], [ 0, %33 ]
  call void @llvm.lifetime.end.p0(i64 24, ptr nonnull %4) #11
  call void @llvm.lifetime.end.p0(i64 24, ptr nonnull %3) #11
  ret i32 %.0
}